target datalayout = "e-m:e-p270:32:32-p271:32:32-p272:64:64-i64:64-i128:128-f80:128-n8:16:32:64-S128"
target triple = "x86_64-pc-linux-gnu"

%struct.QMetaObject = type { %"struct.QMetaObject::Data" }
%"struct.QMetaObject::Data" = type { %"struct.QMetaObject::SuperData", ptr, ptr, ptr, ptr, ptr, ptr }
%"struct.QMetaObject::SuperData" = type { ptr }
%class.QDialog = type { %class.QWidget }
%class.QWidget = type { %class.QObject, %class.QPaintDevice.base, ptr }
%class.QObject = type { ptr, %class.QScopedPointer }
%class.QScopedPointer = type { ptr }
%class.QPaintDevice.base = type <{ ptr, i16 }>
%class.SCTPGraphArwndDialog = type { %class.QDialog, ptr, i16, ptr, i32, i32, i32, %class.QList, %class.QList, %class.QList.0 }
%class.QList = type { %struct.QArrayDataPointer }
%struct.QArrayDataPointer = type { ptr, ptr, i64 }
%class.QList.0 = type { %struct.QArrayDataPointer.3 }
%struct.QArrayDataPointer.3 = type { ptr, ptr, i64 }
%"class.QMetaObject::Connection" = type { ptr }
%class.Ui_SCTPGraphArwndDialog = type { ptr, ptr, ptr, ptr, ptr, ptr, ptr, ptr, ptr, ptr }
%class.QFlag = type { i32 }
%class.QFlags.25 = type { i32 }
%class.QFlags.49 = type { i32 }
%class.QCustomPlot = type <{ %class.QWidget, ptr, ptr, ptr, ptr, ptr, %class.QRect, double, ptr, i8, [7 x i8], %class.QList.8, %class.QList.12, %class.QList.16, %class.QList.20, %class.QFlags.24, %class.QFlags.24, %class.QFlags.25, i32, i8, [7 x i8], %class.QBrush, %class.QPixmap, %class.QPixmap, i8, [3 x i8], i32, ptr, %class.QFlags.26, i32, i32, [4 x i8], ptr, i8, [7 x i8], %class.QList.27, %class.QPoint, i8, [7 x i8], %class.QPointer, %class.QPointer, %class.QVariant, %class.QVariant, i8, i8, [6 x i8], double, double, i32, %class.QFlags.24, i8, [7 x i8] }>
%class.QRect = type { i32, i32, i32, i32 }
%class.QList.8 = type { %struct.QArrayDataPointer.11 }
%struct.QArrayDataPointer.11 = type { ptr, ptr, i64 }
%class.QList.12 = type { %struct.QArrayDataPointer.15 }
%struct.QArrayDataPointer.15 = type { ptr, ptr, i64 }
%class.QList.16 = type { %struct.QArrayDataPointer.19 }
%struct.QArrayDataPointer.19 = type { ptr, ptr, i64 }
%class.QList.20 = type { %struct.QArrayDataPointer.23 }
%struct.QArrayDataPointer.23 = type { ptr, ptr, i64 }
%class.QBrush = type { %"class.std::unique_ptr" }
%"class.std::unique_ptr" = type { %"struct.std::__uniq_ptr_data" }
%"struct.std::__uniq_ptr_data" = type { %"class.std::__uniq_ptr_impl" }
%"class.std::__uniq_ptr_impl" = type { %"class.std::tuple" }
%"class.std::tuple" = type { %"struct.std::_Tuple_impl" }
%"struct.std::_Tuple_impl" = type { %"struct.std::_Head_base.6" }
%"struct.std::_Head_base.6" = type { ptr }
%class.QPixmap = type { %class.QPaintDevice.base, %class.QExplicitlySharedDataPointer }
%class.QExplicitlySharedDataPointer = type { ptr }
%class.QFlags.26 = type { i32 }
%class.QList.27 = type { %struct.QArrayDataPointer.30 }
%struct.QArrayDataPointer.30 = type { ptr, ptr, i64 }
%class.QPoint = type { i32, i32 }
%class.QPointer = type { %class.QWeakPointer }
%class.QWeakPointer = type { ptr, ptr }
%class.QVariant = type { %"struct.QVariant::Private" }
%"struct.QVariant::Private" = type { %union.anon, i64 }
%union.anon = type { ptr, [16 x i8] }
%class.QFlags.24 = type { i32 }
%"class.QtPrivate::QSlotObjectBase" = type { %class.QAtomicInt, ptr }
%class.QAtomicInt = type { %class.QAtomicInteger }
%class.QAtomicInteger = type { %class.QBasicAtomicInteger }
%class.QBasicAtomicInteger = type { %"struct.std::atomic" }
%"struct.std::atomic" = type { %"struct.std::__atomic_base" }
%"struct.std::__atomic_base" = type { i32 }
%"class.QtPrivate::QSlotObject.98" = type { %"class.QtPrivate::QSlotObjectBase", { i64, i64 } }

@_ZN11QCustomPlot16staticMetaObjectE = external global %struct.QMetaObject, align 8

; Function Attrs: mustprogress nounwind uwtable
define linkonce_odr void @_ZNSt13__atomic_baseIiEC2Ei(ptr noundef nonnull align 4 dereferenceable(4) %0, i32 noundef %1) unnamed_addr #1 comdat align 2 {
  %3 = alloca ptr, align 8
  %4 = alloca i32, align 4
  store ptr %0, ptr %3, align 8
  store i32 %1, ptr %4, align 4
  %5 = load ptr, ptr %3, align 8
  %6 = getelementptr inbounds %"struct.std::__atomic_base", ptr %5, i32 0, i32 0
  %7 = load i32, ptr %4, align 4
  store i32 %7, ptr %6, align 4
  ret void
}

; Function Attrs: mustprogress nounwind uwtable
define linkonce_odr void @_ZNSt6atomicIiEC2Ei(ptr noundef nonnull align 4 dereferenceable(4) %0, i32 noundef %1) unnamed_addr #1 comdat align 2 {
  %3 = alloca ptr, align 8
  %4 = alloca i32, align 4
  store ptr %0, ptr %3, align 8
  store i32 %1, ptr %4, align 4
  %5 = load ptr, ptr %3, align 8
  %6 = load i32, ptr %4, align 4
  call void @_ZNSt13__atomic_baseIiEC2Ei(ptr noundef nonnull align 4 dereferenceable(4) %5, i32 noundef %6) #11
  ret void
}

; Function Attrs: mustprogress nounwind uwtable
define linkonce_odr void @_ZN19QBasicAtomicIntegerIiEC2Ei(ptr noundef nonnull align 4 dereferenceable(4) %0, i32 noundef %1) unnamed_addr #1 comdat align 2 {
  %3 = alloca ptr, align 8
  %4 = alloca i32, align 4
  store ptr %0, ptr %3, align 8
  store i32 %1, ptr %4, align 4
  %5 = load ptr, ptr %3, align 8
  %6 = getelementptr inbounds %class.QBasicAtomicInteger, ptr %5, i32 0, i32 0
  %7 = load i32, ptr %4, align 4
  call void @_ZNSt6atomicIiEC2Ei(ptr noundef nonnull align 4 dereferenceable(4) %6, i32 noundef %7) #11
  ret void
}

; Function Attrs: mustprogress nounwind uwtable
define linkonce_odr void @_ZN14QAtomicIntegerIiEC2Ei(ptr noundef nonnull align 4 dereferenceable(4) %0, i32 noundef %1) unnamed_addr #1 comdat align 2 {
  %3 = alloca ptr, align 8
  %4 = alloca i32, align 4
  store ptr %0, ptr %3, align 8
  store i32 %1, ptr %4, align 4
  %5 = load ptr, ptr %3, align 8
  %6 = load i32, ptr %4, align 4
  call void @_ZN19QBasicAtomicIntegerIiEC2Ei(ptr noundef nonnull align 4 dereferenceable(4) %5, i32 noundef %6) #11
  ret void
}

; Function Attrs: mustprogress nounwind uwtable
define linkonce_odr void @_ZN10QAtomicIntC2Ei(ptr noundef nonnull align 4 dereferenceable(4) %0, i32 noundef %1) unnamed_addr #1 comdat align 2 {
  %3 = alloca ptr, align 8
  %4 = alloca i32, align 4
  store ptr %0, ptr %3, align 8
  store i32 %1, ptr %4, align 4
  %5 = load ptr, ptr %3, align 8
  %6 = load i32, ptr %4, align 4
  call void @_ZN14QAtomicIntegerIiEC2Ei(ptr noundef nonnull align 4 dereferenceable(4) %5, i32 noundef %6) #11
  ret void
}

; Function Attrs: mustprogress nounwind uwtable
define linkonce_odr void @_ZN9QtPrivate15QSlotObjectBaseC2EPFviPS0_P7QObjectPPvPbE(ptr noundef nonnull align 8 dereferenceable(16) %0, ptr noundef %1) unnamed_addr #1 comdat align 2 {
  %3 = alloca ptr, align 8
  %4 = alloca ptr, align 8
  store ptr %0, ptr %3, align 8
  store ptr %1, ptr %4, align 8
  %5 = load ptr, ptr %3, align 8
  %6 = getelementptr inbounds %"class.QtPrivate::QSlotObjectBase", ptr %5, i32 0, i32 0
  call void @_ZN10QAtomicIntC2Ei(ptr noundef nonnull align 4 dereferenceable(4) %6, i32 noundef 1) #11
  %7 = getelementptr inbounds %"class.QtPrivate::QSlotObjectBase", ptr %5, i32 0, i32 1
  %8 = load ptr, ptr %4, align 8
  store ptr %8, ptr %7, align 8
  ret void
}

; Function Attrs: mustprogress nounwind uwtable
define linkonce_odr noundef i32 @_ZNK5QFlagcvjEv(ptr noundef nonnull align 4 dereferenceable(4) %0) #1 comdat align 2 {
  %2 = alloca ptr, align 8
  store ptr %0, ptr %2, align 8
  %3 = load ptr, ptr %2, align 8
  %4 = getelementptr inbounds %class.QFlag, ptr %3, i32 0, i32 0
  %5 = load i32, ptr %4, align 4
  ret i32 %5
}

; Function Attrs: mustprogress nounwind uwtable
define linkonce_odr void @_ZN9QtPrivate11QSlotObjectIM20SCTPGraphArwndDialogFvP20QCPAbstractPlottableiP11QMouseEventENS_4ListIJS3_iS5_EEEvEC2ES7_(ptr noundef nonnull align 8 dereferenceable(32) %0, i64 %1, i64 %2) unnamed_addr #1 comdat align 2 {
  %4 = alloca { i64, i64 }, align 8
  %5 = alloca ptr, align 8
  %6 = alloca { i64, i64 }, align 8
  %7 = getelementptr inbounds { i64, i64 }, ptr %4, i32 0, i32 0
  store i64 %1, ptr %7, align 8
  %8 = getelementptr inbounds { i64, i64 }, ptr %4, i32 0, i32 1
  store i64 %2, ptr %8, align 8
  %9 = load { i64, i64 }, ptr %4, align 8
  store ptr %0, ptr %5, align 8
  store { i64, i64 } %9, ptr %6, align 8
  %10 = load ptr, ptr %5, align 8
  call void @_ZN9QtPrivate15QSlotObjectBaseC2EPFviPS0_P7QObjectPPvPbE(ptr noundef nonnull align 8 dereferenceable(16) %10, ptr noundef @_ZN9QtPrivate11QSlotObjectIM20SCTPGraphArwndDialogFvP20QCPAbstractPlottableiP11QMouseEventENS_4ListIJS3_iS5_EEEvE4implEiPNS_15QSlotObjectBaseEP7QObjectPPvPb)
  %11 = getelementptr inbounds %"class.QtPrivate::QSlotObject.98", ptr %10, i32 0, i32 1
  %12 = load { i64, i64 }, ptr %6, align 8
  store { i64, i64 } %12, ptr %11, align 8
  ret void
}

; Function Attrs: mustprogress nounwind uwtable
define linkonce_odr noundef ptr @_ZN9QtPrivate15ConnectionTypesINS_4ListIJP20QCPAbstractPlottableiP11QMouseEventEEELb0EE5typesEv() #1 comdat align 2 {
  ret ptr null
}

; Function Attrs: mustprogress nounwind uwtable
define linkonce_odr void @_ZN6QFlagsIN3QCP11InteractionEEC2E5QFlag(ptr noundef nonnull align 4 dereferenceable(4) %0, i32 %1) unnamed_addr #1 comdat align 2 {
  %3 = alloca %class.QFlag, align 4
  %4 = alloca ptr, align 8
  %5 = getelementptr inbounds %class.QFlag, ptr %3, i32 0, i32 0
  store i32 %1, ptr %5, align 4
  store ptr %0, ptr %4, align 8
  %6 = load ptr, ptr %4, align 8
  %7 = getelementptr inbounds %class.QFlags.25, ptr %6, i32 0, i32 0
  %8 = call noundef i32 @_ZNK5QFlagcvjEv(ptr noundef nonnull align 4 dereferenceable(4) %3) #11
  store i32 %8, ptr %7, align 4
  ret void
}

; Function Attrs: mustprogress nounwind uwtable
define linkonce_odr void @_ZN5QFlagC2Ej(ptr noundef nonnull align 4 dereferenceable(4) %0, i32 noundef %1) unnamed_addr #1 comdat align 2 {
  %3 = alloca ptr, align 8
  %4 = alloca i32, align 4
  store ptr %0, ptr %3, align 8
  store i32 %1, ptr %4, align 4
  %5 = load ptr, ptr %3, align 8
  %6 = getelementptr inbounds %class.QFlag, ptr %5, i32 0, i32 0
  %7 = load i32, ptr %4, align 4
  store i32 %7, ptr %6, align 4
  ret void
}

; Function Attrs: mustprogress nounwind uwtable
define linkonce_odr void @_ZN6QFlagsIN3QCP11InteractionEEC2ES1_(ptr noundef nonnull align 4 dereferenceable(4) %0, i32 noundef %1) unnamed_addr #1 comdat align 2 {
  %3 = alloca ptr, align 8
  %4 = alloca i32, align 4
  store ptr %0, ptr %3, align 8
  store i32 %1, ptr %4, align 4
  %5 = load ptr, ptr %3, align 8
  %6 = getelementptr inbounds %class.QFlags.25, ptr %5, i32 0, i32 0
  %7 = load i32, ptr %4, align 4
  store i32 %7, ptr %6, align 4
  ret void
}

; Function Attrs: mustprogress uwtable
define linkonce_odr void @_ZN7QObject7connectIM11QCustomPlotFvP20QCPAbstractPlottableiP11QMouseEventEM20SCTPGraphArwndDialogFvS3_iS5_EEEN11QMetaObject10ConnectionEPKN9QtPrivate15FunctionPointerIT_E6ObjectESF_PKNSE_IT0_E6ObjectESK_N2Qt14ConnectionTypeE(ptr dead_on_unwind noalias writable sret(%"class.QMetaObject::Connection") align 8 %0, ptr noundef %1, i64 %2, i64 %3, ptr noundef %4, ptr noundef byval({ i64, i64 }) align 8 %5, i32 noundef %6) #0 comdat align 2 personality ptr @__gxx_personality_v0 {
  %8 = alloca ptr, align 8
  %9 = alloca { i64, i64 }, align 8
  %10 = alloca ptr, align 8
  %11 = alloca { i64, i64 }, align 8
  %12 = alloca ptr, align 8
  %13 = alloca { i64, i64 }, align 8
  %14 = alloca i32, align 4
  %15 = alloca ptr, align 8
  %16 = alloca { i64, i64 }, align 8
  %17 = alloca ptr, align 8
  %18 = alloca i32, align 4
  store ptr %0, ptr %8, align 8
  %19 = getelementptr inbounds { i64, i64 }, ptr %9, i32 0, i32 0
  store i64 %2, ptr %19, align 8
  %20 = getelementptr inbounds { i64, i64 }, ptr %9, i32 0, i32 1
  store i64 %3, ptr %20, align 8
  %21 = load { i64, i64 }, ptr %9, align 8
  %22 = load { i64, i64 }, ptr %5, align 8
  store ptr %1, ptr %10, align 8
  store { i64, i64 } %21, ptr %11, align 8
  store ptr %4, ptr %12, align 8
  store { i64, i64 } %22, ptr %13, align 8
  store i32 %6, ptr %14, align 4
  store ptr null, ptr %15, align 8
  %23 = load i32, ptr %14, align 4
  %24 = icmp eq i32 %23, 2
  br i1 %24, label %28, label %25

25:                                               ; preds = %7
  %26 = load i32, ptr %14, align 4
  %27 = icmp eq i32 %26, 3
  br i1 %27, label %28, label %30

28:                                               ; preds = %25, %7
  %29 = call noundef ptr @_ZN9QtPrivate15ConnectionTypesINS_4ListIJP20QCPAbstractPlottableiP11QMouseEventEEELb0EE5typesEv()
  store ptr %29, ptr %15, align 8
  br label %30

30:                                               ; preds = %28, %25
  %31 = load ptr, ptr %10, align 8
  %32 = load ptr, ptr %12, align 8
  %33 = call noalias noundef nonnull ptr @_Znwm(i64 noundef 32) #15
  %34 = load { i64, i64 }, ptr %13, align 8
  store { i64, i64 } %34, ptr %16, align 8
  %35 = getelementptr inbounds { i64, i64 }, ptr %16, i32 0, i32 0
  %36 = load i64, ptr %35, align 8
  %37 = getelementptr inbounds { i64, i64 }, ptr %16, i32 0, i32 1
  %38 = load i64, ptr %37, align 8
  invoke void @_ZN9QtPrivate11QSlotObjectIM20SCTPGraphArwndDialogFvP20QCPAbstractPlottableiP11QMouseEventENS_4ListIJS3_iS5_EEEvEC2ES7_(ptr noundef nonnull align 8 dereferenceable(32) %33, i64 %36, i64 %38)
          to label %39 unwind label %42

39:                                               ; preds = %30
  %40 = load i32, ptr %14, align 4
  %41 = load ptr, ptr %15, align 8
  call void @_ZN7QObject11connectImplEPKS_PPvS1_S3_PN9QtPrivate15QSlotObjectBaseEN2Qt14ConnectionTypeEPKiPK11QMetaObject(ptr dead_on_unwind writable sret(%"class.QMetaObject::Connection") align 8 %0, ptr noundef %31, ptr noundef %11, ptr noundef %32, ptr noundef %13, ptr noundef %33, i32 noundef %40, ptr noundef %41, ptr noundef @_ZN11QCustomPlot16staticMetaObjectE)
  ret void

42:                                               ; preds = %30
  %43 = landingpad { ptr, i32 }
          cleanup
  %44 = extractvalue { ptr, i32 } %43, 0
  store ptr %44, ptr %17, align 8
  %45 = extractvalue { ptr, i32 } %43, 1
  store i32 %45, ptr %18, align 4
  call void @_ZdlPv(ptr noundef %33) #16
  br label %46

46:                                               ; preds = %42
  %47 = load ptr, ptr %17, align 8
  %48 = load i32, ptr %18, align 4
  %49 = insertvalue { ptr, i32 } poison, ptr %47, 0
  %50 = insertvalue { ptr, i32 } %49, i32 %48, 1
  resume { ptr, i32 } %50
}

; Function Attrs: mustprogress nounwind uwtable
define linkonce_odr void @_ZN6QFlagsIN2Qt11OrientationEEC2ES1_(ptr noundef nonnull align 4 dereferenceable(4) %0, i32 noundef %1) unnamed_addr #1 comdat align 2 {
  %3 = alloca ptr, align 8
  %4 = alloca i32, align 4
  store ptr %0, ptr %3, align 8
  store i32 %1, ptr %4, align 4
  %5 = load ptr, ptr %3, align 8
  %6 = getelementptr inbounds %class.QFlags.49, ptr %5, i32 0, i32 0
  %7 = load i32, ptr %4, align 4
  store i32 %7, ptr %6, align 4
  ret void
}

; Function Attrs: mustprogress nounwind uwtable
define linkonce_odr i32 @_ZNK6QFlagsIN3QCP11InteractionEEorES1_(ptr noundef nonnull align 4 dereferenceable(4) %0, i32 noundef %1) #1 comdat align 2 {
  %3 = alloca %class.QFlags.25, align 4
  %4 = alloca ptr, align 8
  %5 = alloca i32, align 4
  %6 = alloca %class.QFlag, align 4
  store ptr %0, ptr %4, align 8
  store i32 %1, ptr %5, align 4
  %7 = load ptr, ptr %4, align 8
  %8 = getelementptr inbounds %class.QFlags.25, ptr %7, i32 0, i32 0
  %9 = load i32, ptr %8, align 4
  %10 = load i32, ptr %5, align 4
  %11 = or i32 %9, %10
  call void @_ZN5QFlagC2Ej(ptr noundef nonnull align 4 dereferenceable(4) %6, i32 noundef %11) #11
  %12 = getelementptr inbounds %class.QFlag, ptr %6, i32 0, i32 0
  %13 = load i32, ptr %12, align 4
  call void @_ZN6QFlagsIN3QCP11InteractionEEC2E5QFlag(ptr noundef nonnull align 4 dereferenceable(4) %3, i32 %13) #11
  %14 = getelementptr inbounds %class.QFlags.25, ptr %3, i32 0, i32 0
  %15 = load i32, ptr %14, align 4
  ret i32 %15
}

; Function Attrs: mustprogress nounwind uwtable
define linkonce_odr i32 @_ZorN3QCP11InteractionES0_(i32 noundef %0, i32 noundef %1) #1 comdat {
  %3 = alloca %class.QFlags.25, align 4
  %4 = alloca i32, align 4
  %5 = alloca i32, align 4
  %6 = alloca %class.QFlags.25, align 4
  store i32 %0, ptr %4, align 4
  store i32 %1, ptr %5, align 4
  %7 = load i32, ptr %4, align 4
  call void @_ZN6QFlagsIN3QCP11InteractionEEC2ES1_(ptr noundef nonnull align 4 dereferenceable(4) %6, i32 noundef %7) #11
  %8 = load i32, ptr %5, align 4
  %9 = call i32 @_ZNK6QFlagsIN3QCP11InteractionEEorES1_(ptr noundef nonnull align 4 dereferenceable(4) %6, i32 noundef %8) #11
  %10 = getelementptr inbounds %class.QFlags.25, ptr %3, i32 0, i32 0
  store i32 %9, ptr %10, align 4
  %11 = getelementptr inbounds %class.QFlags.25, ptr %3, i32 0, i32 0
  %12 = load i32, ptr %11, align 4
  ret i32 %12
}

; Function Attrs: mustprogress uwtable
define void @_ZN20SCTPGraphArwndDialog9drawGraphEPK16_sctp_assoc_info(ptr noundef nonnull align 8 dereferenceable(152) %0, ptr noundef %1) #0 align 2 {
  %3 = alloca ptr, align 8
  %4 = alloca ptr, align 8
  %5 = alloca %class.QFlags.25, align 4
  %6 = alloca %class.QFlags.25, align 4
  %7 = alloca %class.QFlags.49, align 4
  %8 = alloca %"class.QMetaObject::Connection", align 8
  %9 = alloca { i64, i64 }, align 8
  %10 = alloca { i64, i64 }, align 8
  store ptr %0, ptr %3, align 8
  store ptr %1, ptr %4, align 8
  %11 = load ptr, ptr %3, align 8
  %12 = getelementptr inbounds %class.SCTPGraphArwndDialog, ptr %11, i32 0, i32 1
  %13 = load ptr, ptr %12, align 8
  %14 = getelementptr inbounds %class.Ui_SCTPGraphArwndDialog, ptr %13, i32 0, i32 3
  %15 = load ptr, ptr %14, align 8
  %16 = call noundef i32 @_ZN11QCustomPlot11clearGraphsEv(ptr noundef nonnull align 8 dereferenceable(513) %15)
  %17 = load ptr, ptr %4, align 8
  call void @_ZN20SCTPGraphArwndDialog14drawArwndGraphEPK16_sctp_assoc_info(ptr noundef nonnull align 8 dereferenceable(152) %11, ptr noundef %17)
  %18 = getelementptr inbounds %class.SCTPGraphArwndDialog, ptr %11, i32 0, i32 1
  %19 = load ptr, ptr %18, align 8
  %20 = getelementptr inbounds %class.Ui_SCTPGraphArwndDialog, ptr %19, i32 0, i32 3
  %21 = load ptr, ptr %20, align 8
  %22 = call i32 @_ZorN3QCP11InteractionES0_(i32 noundef 2, i32 noundef 1) #11
  %23 = getelementptr inbounds %class.QFlags.25, ptr %6, i32 0, i32 0
  store i32 %22, ptr %23, align 4
  %24 = call i32 @_ZNK6QFlagsIN3QCP11InteractionEEorES1_(ptr noundef nonnull align 4 dereferenceable(4) %6, i32 noundef 8) #11
  %25 = getelementptr inbounds %class.QFlags.25, ptr %5, i32 0, i32 0
  store i32 %24, ptr %25, align 4
  call void @_ZN11QCustomPlot15setInteractionsERK6QFlagsIN3QCP11InteractionEE(ptr noundef nonnull align 8 dereferenceable(513) %21, ptr noundef nonnull align 4 dereferenceable(4) %5)
  %26 = getelementptr inbounds %class.SCTPGraphArwndDialog, ptr %11, i32 0, i32 1
  %27 = load ptr, ptr %26, align 8
  %28 = getelementptr inbounds %class.Ui_SCTPGraphArwndDialog, ptr %27, i32 0, i32 3
  %29 = load ptr, ptr %28, align 8
  %30 = call noundef ptr @_ZNK11QCustomPlot8axisRectEi(ptr noundef nonnull align 8 dereferenceable(513) %29, i32 noundef 0)
  %31 = getelementptr inbounds %class.SCTPGraphArwndDialog, ptr %11, i32 0, i32 1
  %32 = load ptr, ptr %31, align 8
  %33 = getelementptr inbounds %class.Ui_SCTPGraphArwndDialog, ptr %32, i32 0, i32 3
  %34 = load ptr, ptr %33, align 8
  %35 = getelementptr inbounds %class.QCustomPlot, ptr %34, i32 0, i32 1
  %36 = load ptr, ptr %35, align 8
  %37 = getelementptr inbounds %class.SCTPGraphArwndDialog, ptr %11, i32 0, i32 1
  %38 = load ptr, ptr %37, align 8
  %39 = getelementptr inbounds %class.Ui_SCTPGraphArwndDialog, ptr %38, i32 0, i32 3
  %40 = load ptr, ptr %39, align 8
  %41 = getelementptr inbounds %class.QCustomPlot, ptr %40, i32 0, i32 2
  %42 = load ptr, ptr %41, align 8
  call void @_ZN11QCPAxisRect16setRangeZoomAxesEP7QCPAxisS1_(ptr noundef nonnull align 8 dereferenceable(432) %30, ptr noundef %36, ptr noundef %42)
  %43 = getelementptr inbounds %class.SCTPGraphArwndDialog, ptr %11, i32 0, i32 1
  %44 = load ptr, ptr %43, align 8
  %45 = getelementptr inbounds %class.Ui_SCTPGraphArwndDialog, ptr %44, i32 0, i32 3
  %46 = load ptr, ptr %45, align 8
  %47 = call noundef ptr @_ZNK11QCustomPlot8axisRectEi(ptr noundef nonnull align 8 dereferenceable(513) %46, i32 noundef 0)
  call void @_ZN6QFlagsIN2Qt11OrientationEEC2ES1_(ptr noundef nonnull align 4 dereferenceable(4) %7, i32 noundef 1) #11
  %48 = getelementptr inbounds %class.QFlags.49, ptr %7, i32 0, i32 0
  %49 = load i32, ptr %48, align 4
  call void @_ZN11QCPAxisRect12setRangeZoomE6QFlagsIN2Qt11OrientationEE(ptr noundef nonnull align 8 dereferenceable(432) %47, i32 %49)
  %50 = getelementptr inbounds %class.SCTPGraphArwndDialog, ptr %11, i32 0, i32 1
  %51 = load ptr, ptr %50, align 8
  %52 = getelementptr inbounds %class.Ui_SCTPGraphArwndDialog, ptr %51, i32 0, i32 3
  %53 = load ptr, ptr %52, align 8
  store { i64, i64 } { i64 ptrtoint (ptr @_ZN11QCustomPlot14plottableClickEP20QCPAbstractPlottableiP11QMouseEvent to i64), i64 0 }, ptr %9, align 8
  %54 = getelementptr inbounds { i64, i64 }, ptr %9, i32 0, i32 0
  %55 = load i64, ptr %54, align 8
  %56 = getelementptr inbounds { i64, i64 }, ptr %9, i32 0, i32 1
  %57 = load i64, ptr %56, align 8
  store { i64, i64 } { i64 ptrtoint (ptr @_ZN20SCTPGraphArwndDialog12graphClickedEP20QCPAbstractPlottableiP11QMouseEvent to i64), i64 0 }, ptr %10, align 8
  call void @_ZN7QObject7connectIM11QCustomPlotFvP20QCPAbstractPlottableiP11QMouseEventEM20SCTPGraphArwndDialogFvS3_iS5_EEEN11QMetaObject10ConnectionEPKN9QtPrivate15FunctionPointerIT_E6ObjectESF_PKNSE_IT0_E6ObjectESK_N2Qt14ConnectionTypeE(ptr dead_on_unwind writable sret(%"class.QMetaObject::Connection") align 8 %8, ptr noundef %53, i64 %55, i64 %57, ptr noundef %11, ptr noundef byval({ i64, i64 }) align 8 %10, i32 noundef 0)
  call void @_ZN11QMetaObject10ConnectionD1Ev(ptr noundef nonnull align 8 dereferenceable(8) %8) #11
  %58 = getelementptr inbounds %class.SCTPGraphArwndDialog, ptr %11, i32 0, i32 1
  %59 = load ptr, ptr %58, align 8
  %60 = getelementptr inbounds %class.Ui_SCTPGraphArwndDialog, ptr %59, i32 0, i32 3
  %61 = load ptr, ptr %60, align 8
  call void @_ZN11QCustomPlot6replotENS_15RefreshPriorityE(ptr noundef nonnull align 8 dereferenceable(513) %61, i32 noundef 2)
  ret void
}