; Function Attrs: mustprogress uwtable
define void @_ZN20SCTPGraphArwndDialog9drawGraphEPK16_sctp_assoc_info(ptr noundef nonnull align 8 dereferenceable(152) %0, ptr nocapture noundef readonly %1) local_unnamed_addr #0 align 2 personality ptr @__gxx_personality_v0 {
  %3 = alloca { i64, i64 }, align 8
  %4 = alloca { i64, i64 }, align 8
  %5 = alloca %class.QFlags.25, align 4
  %6 = alloca %"class.QMetaObject::Connection", align 8
  %7 = getelementptr inbounds i8, ptr %0, i64 40
  %8 = load ptr, ptr %7, align 8
  %9 = getelementptr inbounds i8, ptr %8, i64 24
  %10 = load ptr, ptr %9, align 8
  %11 = tail call noundef i32 @_ZN11QCustomPlot11clearGraphsEv(ptr noundef nonnull align 8 dereferenceable(513) %10)
  tail call void @_ZN20SCTPGraphArwndDialog14drawArwndGraphEPK16_sctp_assoc_info(ptr noundef nonnull align 8 dereferenceable(152) %0, ptr noundef %1)
  %12 = load ptr, ptr %7, align 8
  %13 = getelementptr inbounds i8, ptr %12, i64 24
  %14 = load ptr, ptr %13, align 8
  store i32 11, ptr %5, align 4
  call void @_ZN11QCustomPlot15setInteractionsERK6QFlagsIN3QCP11InteractionEE(ptr noundef nonnull align 8 dereferenceable(513) %14, ptr noundef nonnull align 4 dereferenceable(4) %5)
  %15 = load ptr, ptr %7, align 8
  %16 = getelementptr inbounds i8, ptr %15, i64 24
  %17 = load ptr, ptr %16, align 8
  %18 = call noundef ptr @_ZNK11QCustomPlot8axisRectEi(ptr noundef nonnull align 8 dereferenceable(513) %17, i32 noundef 0)
  %19 = load ptr, ptr %7, align 8
  %20 = getelementptr inbounds i8, ptr %19, i64 24
  %21 = load ptr, ptr %20, align 8
  %22 = getelementptr inbounds i8, ptr %21, i64 40
  %23 = load ptr, ptr %22, align 8
  %24 = getelementptr inbounds i8, ptr %21, i64 48
  %25 = load ptr, ptr %24, align 8
  call void @_ZN11QCPAxisRect16setRangeZoomAxesEP7QCPAxisS1_(ptr noundef nonnull align 8 dereferenceable(432) %18, ptr noundef %23, ptr noundef %25)
  %26 = load ptr, ptr %7, align 8
  %27 = getelementptr inbounds i8, ptr %26, i64 24
  %28 = load ptr, ptr %27, align 8
  %29 = call noundef ptr @_ZNK11QCustomPlot8axisRectEi(ptr noundef nonnull align 8 dereferenceable(513) %28, i32 noundef 0)
  call void @_ZN11QCPAxisRect12setRangeZoomE6QFlagsIN2Qt11OrientationEE(ptr noundef nonnull align 8 dereferenceable(432) %29, i32 1)
  %30 = load ptr, ptr %7, align 8
  %31 = getelementptr inbounds i8, ptr %30, i64 24
  %32 = load ptr, ptr %31, align 8
  call void @llvm.lifetime.start.p0(i64 16, ptr nonnull %3)
  call void @llvm.lifetime.start.p0(i64 16, ptr nonnull %4)
  store i64 ptrtoint (ptr @_ZN11QCustomPlot14plottableClickEP20QCPAbstractPlottableiP11QMouseEvent to i64), ptr %3, align 8, !noalias !7
  %.fca.1.gep12.i = getelementptr inbounds i8, ptr %3, i64 8
  store i64 0, ptr %.fca.1.gep12.i, align 8, !noalias !7
  store i64 ptrtoint (ptr @_ZN20SCTPGraphArwndDialog12graphClickedEP20QCPAbstractPlottableiP11QMouseEvent to i64), ptr %4, align 8, !noalias !7
  %.fca.1.gep.i = getelementptr inbounds i8, ptr %4, i64 8
  store i64 0, ptr %.fca.1.gep.i, align 8, !noalias !7
  %33 = call noalias noundef nonnull dereferenceable(32) ptr @_Znwm(i64 noundef 32) #15, !noalias !7
  store i32 1, ptr %33, align 4, !noalias !7
  %34 = getelementptr inbounds i8, ptr %33, i64 8
  store ptr @_ZN9QtPrivate11QSlotObjectIM20SCTPGraphArwndDialogFvP20QCPAbstractPlottableiP11QMouseEventENS_4ListIJS3_iS5_EEEvE4implEiPNS_15QSlotObjectBaseEP7QObjectPPvPb, ptr %34, align 8, !noalias !7
  %35 = getelementptr inbounds i8, ptr %33, i64 16
  store i64 ptrtoint (ptr @_ZN20SCTPGraphArwndDialog12graphClickedEP20QCPAbstractPlottableiP11QMouseEvent to i64), ptr %35, align 8, !noalias !7
  %.repack7.i.i = getelementptr inbounds i8, ptr %33, i64 24
  store i64 0, ptr %.repack7.i.i, align 8, !noalias !7
  call void @_ZN7QObject11connectImplEPKS_PPvS1_S3_PN9QtPrivate15QSlotObjectBaseEN2Qt14ConnectionTypeEPKiPK11QMetaObject(ptr dead_on_unwind nonnull writable sret(%"class.QMetaObject::Connection") align 8 %6, ptr noundef %32, ptr noundef nonnull %3, ptr noundef nonnull %0, ptr noundef nonnull %4, ptr noundef nonnull %33, i32 noundef 0, ptr noundef null, ptr noundef nonnull @_ZN11QCustomPlot16staticMetaObjectE)
  call void @llvm.lifetime.end.p0(i64 16, ptr nonnull %3)
  call void @llvm.lifetime.end.p0(i64 16, ptr nonnull %4)
  call void @_ZN11QMetaObject10ConnectionD1Ev(ptr noundef nonnull align 8 dereferenceable(8) %6) #16
  %36 = load ptr, ptr %7, align 8
  %37 = getelementptr inbounds i8, ptr %36, i64 24
  %38 = load ptr, ptr %37, align 8
  call void @_ZN11QCustomPlot6replotENS_15RefreshPriorityE(ptr noundef nonnull align 8 dereferenceable(513) %38, i32 noundef 2)
  ret void
}